target datalayout = "e-m:e-p270:32:32-p271:32:32-p272:64:64-i64:64-i128:128-f80:128-n8:16:32:64-S128"
target triple = "x86_64-pc-linux-gnu"

%struct.eio_obj = type { i32, ptr, ptr, i8 }
%struct.stepd_step_rec_t = type { ptr, ptr, i32, %union.pthread_cond_t, %union.pthread_mutex_t, %struct.slurm_step_id_msg, i32, i32, i32, i32, i32, i32, ptr, ptr, i32, i32, ptr, i32, i32, i32, i32, i32, ptr, ptr, ptr, ptr, i32, i32, i64, i64, i16, i32, ptr, ptr, ptr, i32, ptr, i32, ptr, i32, ptr, i16, i32, i32, i32, ptr, i32, ptr, ptr, ptr, ptr, i32, i32, ptr, ptr, i8, i8, i8, i64, i32, ptr, ptr, ptr, ptr, ptr, ptr, ptr, ptr, ptr, ptr, i32, i32, ptr, i8, %union.pthread_cond_t, %union.pthread_mutex_t, i64, ptr, i32, i32, i32, ptr, i64, ptr, ptr, i8, ptr, i16, ptr, ptr, ptr, ptr, ptr, ptr, i64, ptr, i64, ptr, i16, i8, i16, i32, ptr, i16, ptr, ptr, i16, ptr, ptr, ptr, i8 }
%struct.slurm_step_id_msg = type { i64, i32, i32, i32 }
%union.pthread_cond_t = type { %struct.__pthread_cond_s }
%struct.__pthread_cond_s = type { %union.__atomic_wide_counter, %union.__atomic_wide_counter, [2 x i32], [2 x i32], i32, i32, [2 x i32] }
%union.__atomic_wide_counter = type { i64 }
%union.pthread_mutex_t = type { %struct.__pthread_mutex_s }
%struct.__pthread_mutex_s = type { i32, i32, i32, i32, i32, i16, i16, %struct.__pthread_internal_list }
%struct.__pthread_internal_list = type { ptr, ptr }
%struct.io_buf = type { i32, i32, ptr }
%struct.task_write_info = type { i32, ptr, ptr, ptr, i32 }

@.str.72 = private unnamed_addr constant [21 x i8] c"Entering _task_write\00", align 1
@.str.73 = private unnamed_addr constant [34 x i8] c"_task_write: nothing in the queue\00", align 1

; Function Attrs: nounwind uwtable
define internal void @_free_incoming_msg(ptr noundef %0, ptr noundef %1) #0 {
  %3 = alloca ptr, align 8
  %4 = alloca ptr, align 8
  store ptr %0, ptr %3, align 8
  store ptr %1, ptr %4, align 8
  %5 = load ptr, ptr %3, align 8
  %6 = getelementptr inbounds nuw %struct.io_buf, ptr %5, i32 0, i32 0
  %7 = load i32, ptr %6, align 8
  %8 = add nsw i32 %7, -1
  store i32 %8, ptr %6, align 8
  %9 = load ptr, ptr %3, align 8
  %10 = getelementptr inbounds nuw %struct.io_buf, ptr %9, i32 0, i32 0
  %11 = load i32, ptr %10, align 8
  %12 = icmp eq i32 %11, 0
  br i1 %12, label %13, label %22

13:                                               ; preds = %2
  %14 = load ptr, ptr %4, align 8
  %15 = getelementptr inbounds nuw %struct.stepd_step_rec_t, ptr %14, i32 0, i32 68
  %16 = load ptr, ptr %15, align 8
  %17 = load ptr, ptr %3, align 8
  call void @list_enqueue(ptr noundef %16, ptr noundef %17)
  %18 = load ptr, ptr %4, align 8
  %19 = getelementptr inbounds nuw %struct.stepd_step_rec_t, ptr %18, i32 0, i32 63
  %20 = load ptr, ptr %19, align 8
  %21 = call i32 @eio_signal_wakeup(ptr noundef %20)
  br label %22

22:                                               ; preds = %13, %2
  ret void
}

; Function Attrs: nounwind uwtable
define internal i32 @_task_write(ptr noundef %0, ptr noundef %1) #0 {
  %3 = alloca i32, align 4
  %4 = alloca ptr, align 8
  %5 = alloca ptr, align 8
  %6 = alloca ptr, align 8
  %7 = alloca ptr, align 8
  %8 = alloca i32, align 4
  %9 = alloca i32, align 4
  store ptr %0, ptr %4, align 8
  store ptr %1, ptr %5, align 8
  call void @llvm.lifetime.start.p0(i64 8, ptr %6) #10
  %10 = load ptr, ptr %4, align 8
  %11 = getelementptr inbounds nuw %struct.eio_obj, ptr %10, i32 0, i32 1
  %12 = load ptr, ptr %11, align 8
  store ptr %12, ptr %6, align 8
  call void @llvm.lifetime.start.p0(i64 8, ptr %7) #10
  call void @llvm.lifetime.start.p0(i64 4, ptr %8) #10
  br label %13

13:                                               ; preds = %2
  br label %14

14:                                               ; preds = %13
  %15 = call i32 @get_log_level()
  %16 = icmp sge i32 %15, 8
  br i1 %16, label %17, label %18

17:                                               ; preds = %14
  call void (i32, ptr, ...) @log_var(i32 noundef 8, ptr noundef @.str.72)
  br label %18

18:                                               ; preds = %17, %14
  br label %19

19:                                               ; preds = %18
  br label %20

20:                                               ; preds = %19
  br label %21

21:                                               ; preds = %20
  br label %22

22:                                               ; preds = %21
  %23 = load ptr, ptr %6, align 8
  %24 = getelementptr inbounds nuw %struct.task_write_info, ptr %23, i32 0, i32 3
  %25 = load ptr, ptr %24, align 8
  %26 = icmp eq ptr %25, null
  br i1 %26, label %27, label %79

27:                                               ; preds = %22
  %28 = load ptr, ptr %6, align 8
  %29 = getelementptr inbounds nuw %struct.task_write_info, ptr %28, i32 0, i32 2
  %30 = load ptr, ptr %29, align 8
  %31 = call ptr @list_dequeue(ptr noundef %30)
  %32 = load ptr, ptr %6, align 8
  %33 = getelementptr inbounds nuw %struct.task_write_info, ptr %32, i32 0, i32 3
  store ptr %31, ptr %33, align 8
  %34 = load ptr, ptr %6, align 8
  %35 = getelementptr inbounds nuw %struct.task_write_info, ptr %34, i32 0, i32 3
  %36 = load ptr, ptr %35, align 8
  %37 = icmp eq ptr %36, null
  br i1 %37, label %38, label %49

38:                                               ; preds = %27
  br label %39

39:                                               ; preds = %38
  br label %40

40:                                               ; preds = %39
  %41 = call i32 @get_log_level()
  %42 = icmp sge i32 %41, 9
  br i1 %42, label %43, label %44

43:                                               ; preds = %40
  call void (i32, ptr, ...) @log_var(i32 noundef 9, ptr noundef @.str.73)
  br label %44

44:                                               ; preds = %43, %40
  br label %45

45:                                               ; preds = %44
  br label %46

46:                                               ; preds = %45
  br label %47

47:                                               ; preds = %46
  br label %48

48:                                               ; preds = %47
  store i32 0, ptr %3, align 4
  store i32 1, ptr %9, align 4
  br label %157

49:                                               ; preds = %27
  %50 = load ptr, ptr %6, align 8
  %51 = getelementptr inbounds nuw %struct.task_write_info, ptr %50, i32 0, i32 3
  %52 = load ptr, ptr %51, align 8
  %53 = getelementptr inbounds nuw %struct.io_buf, ptr %52, i32 0, i32 1
  %54 = load i32, ptr %53, align 4
  %55 = icmp eq i32 %54, 0
  br i1 %55, label %56, label %71

56:                                               ; preds = %49
  %57 = load ptr, ptr %4, align 8
  %58 = getelementptr inbounds nuw %struct.eio_obj, ptr %57, i32 0, i32 0
  %59 = load i32, ptr %58, align 8
  %60 = call i32 @close(i32 noundef %59)
  %61 = load ptr, ptr %4, align 8
  %62 = getelementptr inbounds nuw %struct.eio_obj, ptr %61, i32 0, i32 0
  store i32 -1, ptr %62, align 8
  %63 = load ptr, ptr %6, align 8
  %64 = getelementptr inbounds nuw %struct.task_write_info, ptr %63, i32 0, i32 3
  %65 = load ptr, ptr %64, align 8
  %66 = load ptr, ptr %6, align 8
  %67 = getelementptr inbounds nuw %struct.task_write_info, ptr %66, i32 0, i32 1
  %68 = load ptr, ptr %67, align 8
  call void @_free_incoming_msg(ptr noundef %65, ptr noundef %68)
  %69 = load ptr, ptr %6, align 8
  %70 = getelementptr inbounds nuw %struct.task_write_info, ptr %69, i32 0, i32 3
  store ptr null, ptr %70, align 8
  store i32 0, ptr %3, align 4
  store i32 1, ptr %9, align 4
  br label %157

71:                                               ; preds = %49
  %72 = load ptr, ptr %6, align 8
  %73 = getelementptr inbounds nuw %struct.task_write_info, ptr %72, i32 0, i32 3
  %74 = load ptr, ptr %73, align 8
  %75 = getelementptr inbounds nuw %struct.io_buf, ptr %74, i32 0, i32 1
  %76 = load i32, ptr %75, align 4
  %77 = load ptr, ptr %6, align 8
  %78 = getelementptr inbounds nuw %struct.task_write_info, ptr %77, i32 0, i32 4
  store i32 %76, ptr %78, align 8
  br label %79

79:                                               ; preds = %71, %22
  %80 = load ptr, ptr %6, align 8
  %81 = getelementptr inbounds nuw %struct.task_write_info, ptr %80, i32 0, i32 3
  %82 = load ptr, ptr %81, align 8
  %83 = getelementptr inbounds nuw %struct.io_buf, ptr %82, i32 0, i32 2
  %84 = load ptr, ptr %83, align 8
  %85 = load ptr, ptr %6, align 8
  %86 = getelementptr inbounds nuw %struct.task_write_info, ptr %85, i32 0, i32 3
  %87 = load ptr, ptr %86, align 8
  %88 = getelementptr inbounds nuw %struct.io_buf, ptr %87, i32 0, i32 1
  %89 = load i32, ptr %88, align 4
  %90 = load ptr, ptr %6, align 8
  %91 = getelementptr inbounds nuw %struct.task_write_info, ptr %90, i32 0, i32 4
  %92 = load i32, ptr %91, align 8
  %93 = sub i32 %89, %92
  %94 = zext i32 %93 to i64
  %95 = getelementptr inbounds nuw i8, ptr %84, i64 %94
  store ptr %95, ptr %7, align 8
  br label %96

96:                                               ; preds = %112, %79
  %97 = load ptr, ptr %4, align 8
  %98 = getelementptr inbounds nuw %struct.eio_obj, ptr %97, i32 0, i32 0
  %99 = load i32, ptr %98, align 8
  %100 = load ptr, ptr %7, align 8
  %101 = load ptr, ptr %6, align 8
  %102 = getelementptr inbounds nuw %struct.task_write_info, ptr %101, i32 0, i32 4
  %103 = load i32, ptr %102, align 8
  %104 = sext i32 %103 to i64
  %105 = call i64 @write(i32 noundef %99, ptr noundef %100, i64 noundef %104)
  %106 = trunc i64 %105 to i32
  store i32 %106, ptr %8, align 4
  %107 = icmp slt i32 %106, 0
  br i1 %107, label %108, label %137

108:                                              ; preds = %96
  %109 = call ptr @__errno_location() #11
  %110 = load i32, ptr %109, align 4
  %111 = icmp eq i32 %110, 4
  br i1 %111, label %112, label %113

112:                                              ; preds = %108
  br label %96

113:                                              ; preds = %108
  %114 = call ptr @__errno_location() #11
  %115 = load i32, ptr %114, align 4
  %116 = icmp eq i32 %115, 11
  br i1 %116, label %121, label %117

117:                                              ; preds = %113
  %118 = call ptr @__errno_location() #11
  %119 = load i32, ptr %118, align 4
  %120 = icmp eq i32 %119, 11
  br i1 %120, label %121, label %122

121:                                              ; preds = %117, %113
  store i32 0, ptr %3, align 4
  store i32 1, ptr %9, align 4
  br label %157

122:                                              ; preds = %117
  %123 = load ptr, ptr %4, align 8
  %124 = getelementptr inbounds nuw %struct.eio_obj, ptr %123, i32 0, i32 0
  %125 = load i32, ptr %124, align 8
  %126 = call i32 @close(i32 noundef %125)
  %127 = load ptr, ptr %4, align 8
  %128 = getelementptr inbounds nuw %struct.eio_obj, ptr %127, i32 0, i32 0
  store i32 -1, ptr %128, align 8
  %129 = load ptr, ptr %6, align 8
  %130 = getelementptr inbounds nuw %struct.task_write_info, ptr %129, i32 0, i32 3
  %131 = load ptr, ptr %130, align 8
  %132 = load ptr, ptr %6, align 8
  %133 = getelementptr inbounds nuw %struct.task_write_info, ptr %132, i32 0, i32 1
  %134 = load ptr, ptr %133, align 8
  call void @_free_incoming_msg(ptr noundef %131, ptr noundef %134)
  %135 = load ptr, ptr %6, align 8
  %136 = getelementptr inbounds nuw %struct.task_write_info, ptr %135, i32 0, i32 3
  store ptr null, ptr %136, align 8
  store i32 -1, ptr %3, align 4
  store i32 1, ptr %9, align 4
  br label %157

137:                                              ; preds = %96
  %138 = load i32, ptr %8, align 4
  %139 = load ptr, ptr %6, align 8
  %140 = getelementptr inbounds nuw %struct.task_write_info, ptr %139, i32 0, i32 4
  %141 = load i32, ptr %140, align 8
  %142 = sub nsw i32 %141, %138
  store i32 %142, ptr %140, align 8
  %143 = load ptr, ptr %6, align 8
  %144 = getelementptr inbounds nuw %struct.task_write_info, ptr %143, i32 0, i32 4
  %145 = load i32, ptr %144, align 8
  %146 = icmp sgt i32 %145, 0
  br i1 %146, label %147, label %148

147:                                              ; preds = %137
  store i32 0, ptr %3, align 4
  store i32 1, ptr %9, align 4
  br label %157

148:                                              ; preds = %137
  %149 = load ptr, ptr %6, align 8
  %150 = getelementptr inbounds nuw %struct.task_write_info, ptr %149, i32 0, i32 3
  %151 = load ptr, ptr %150, align 8
  %152 = load ptr, ptr %6, align 8
  %153 = getelementptr inbounds nuw %struct.task_write_info, ptr %152, i32 0, i32 1
  %154 = load ptr, ptr %153, align 8
  call void @_free_incoming_msg(ptr noundef %151, ptr noundef %154)
  %155 = load ptr, ptr %6, align 8
  %156 = getelementptr inbounds nuw %struct.task_write_info, ptr %155, i32 0, i32 3
  store ptr null, ptr %156, align 8
  store i32 0, ptr %3, align 4
  store i32 1, ptr %9, align 4
  br label %157

157:                                              ; preds = %148, %147, %122, %121, %56, %48
  call void @llvm.lifetime.end.p0(i64 4, ptr %8) #10
  call void @llvm.lifetime.end.p0(i64 8, ptr %7) #10
  call void @llvm.lifetime.end.p0(i64 8, ptr %6) #10
  %158 = load i32, ptr %3, align 4
  ret i32 %158
}