; Function Attrs: nounwind uwtable
define internal range(i32 -1, 1) i32 @_task_write(ptr noundef captures(none) %0, ptr readnone captures(none) %1) #0 {
  %3 = getelementptr inbounds nuw i8, ptr %0, i64 8
  %4 = load ptr, ptr %3, align 8
  %5 = tail call i32 @get_log_level() #11
  %6 = icmp sgt i32 %5, 7
  br i1 %6, label %7, label %8

7:                                                ; preds = %2
  tail call void (i32, ptr, ...) @log_var(i32 noundef 8, ptr noundef nonnull @.str.72) #11
  br label %8

8:                                                ; preds = %7, %2
  %9 = getelementptr inbounds nuw i8, ptr %4, i64 24
  %10 = load ptr, ptr %9, align 8
  %11 = icmp eq ptr %10, null
  br i1 %11, label %12, label %._crit_edge

._crit_edge:                                      ; preds = %8
  %.phi.trans.insert = getelementptr inbounds nuw i8, ptr %4, i64 32
  %.pre = load i32, ptr %.phi.trans.insert, align 8
  br label %42

12:                                               ; preds = %8
  %13 = getelementptr inbounds nuw i8, ptr %4, i64 16
  %14 = load ptr, ptr %13, align 8
  %15 = tail call ptr @list_dequeue(ptr noundef %14) #11
  store ptr %15, ptr %9, align 8
  %16 = icmp eq ptr %15, null
  br i1 %16, label %17, label %21

17:                                               ; preds = %12
  %18 = tail call i32 @get_log_level() #11
  %19 = icmp sgt i32 %18, 8
  br i1 %19, label %20, label %.loopexit

20:                                               ; preds = %17
  tail call void (i32, ptr, ...) @log_var(i32 noundef 9, ptr noundef nonnull @.str.73) #11
  br label %.loopexit

21:                                               ; preds = %12
  %22 = getelementptr inbounds nuw i8, ptr %15, i64 4
  %23 = load i32, ptr %22, align 4
  %24 = icmp eq i32 %23, 0
  br i1 %24, label %25, label %40

25:                                               ; preds = %21
  %26 = load i32, ptr %0, align 8
  %27 = tail call i32 @close(i32 noundef %26) #11
  store i32 -1, ptr %0, align 8
  %28 = load ptr, ptr %9, align 8
  %29 = getelementptr inbounds nuw i8, ptr %4, i64 8
  %30 = load ptr, ptr %29, align 8
  %31 = load i32, ptr %28, align 8
  %32 = add nsw i32 %31, -1
  store i32 %32, ptr %28, align 8
  %33 = icmp eq i32 %32, 0
  br i1 %33, label %34, label %_free_incoming_msg.exit

34:                                               ; preds = %25
  %35 = getelementptr inbounds nuw i8, ptr %30, i64 528
  %36 = load ptr, ptr %35, align 8
  tail call void @list_enqueue(ptr noundef %36, ptr noundef nonnull %28) #11
  %37 = getelementptr inbounds nuw i8, ptr %30, i64 488
  %38 = load ptr, ptr %37, align 8
  %39 = tail call i32 @eio_signal_wakeup(ptr noundef %38) #11
  br label %_free_incoming_msg.exit

_free_incoming_msg.exit:                          ; preds = %25, %34
  store ptr null, ptr %9, align 8
  br label %.loopexit

40:                                               ; preds = %21
  %41 = getelementptr inbounds nuw i8, ptr %4, i64 32
  store i32 %23, ptr %41, align 8
  br label %42

42:                                               ; preds = %._crit_edge, %40
  %43 = phi i32 [ %23, %40 ], [ %.pre, %._crit_edge ]
  %44 = phi ptr [ %15, %40 ], [ %10, %._crit_edge ]
  %45 = getelementptr inbounds nuw i8, ptr %44, i64 8
  %46 = load ptr, ptr %45, align 8
  %47 = getelementptr inbounds nuw i8, ptr %44, i64 4
  %48 = load i32, ptr %47, align 4
  %49 = getelementptr inbounds nuw i8, ptr %4, i64 32
  %50 = sub i32 %48, %43
  %51 = zext i32 %50 to i64
  %52 = getelementptr inbounds nuw i8, ptr %46, i64 %51
  br label %53

53:                                               ; preds = %60, %42
  %54 = load i32, ptr %0, align 8
  %55 = load i32, ptr %49, align 8
  %56 = sext i32 %55 to i64
  %57 = tail call i64 @write(i32 noundef %54, ptr noundef %52, i64 noundef %56) #11
  %58 = trunc i64 %57 to i32
  %59 = icmp slt i32 %58, 0
  br i1 %59, label %60, label %78

60:                                               ; preds = %53
  %61 = tail call ptr @__errno_location() #13
  %62 = load i32, ptr %61, align 4
  switch i32 %62, label %63 [
    i32 4, label %53
    i32 11, label %.loopexit
  ]

63:                                               ; preds = %60
  %64 = load i32, ptr %0, align 8
  %65 = tail call i32 @close(i32 noundef %64) #11
  store i32 -1, ptr %0, align 8
  %66 = load ptr, ptr %9, align 8
  %67 = getelementptr inbounds nuw i8, ptr %4, i64 8
  %68 = load ptr, ptr %67, align 8
  %69 = load i32, ptr %66, align 8
  %70 = add nsw i32 %69, -1
  store i32 %70, ptr %66, align 8
  %71 = icmp eq i32 %70, 0
  br i1 %71, label %72, label %_free_incoming_msg.exit34

72:                                               ; preds = %63
  %73 = getelementptr inbounds nuw i8, ptr %68, i64 528
  %74 = load ptr, ptr %73, align 8
  tail call void @list_enqueue(ptr noundef %74, ptr noundef nonnull %66) #11
  %75 = getelementptr inbounds nuw i8, ptr %68, i64 488
  %76 = load ptr, ptr %75, align 8
  %77 = tail call i32 @eio_signal_wakeup(ptr noundef %76) #11
  br label %_free_incoming_msg.exit34

_free_incoming_msg.exit34:                        ; preds = %63, %72
  store ptr null, ptr %9, align 8
  br label %.loopexit

78:                                               ; preds = %53
  %79 = load i32, ptr %49, align 8
  %80 = sub nsw i32 %79, %58
  store i32 %80, ptr %49, align 8
  %81 = icmp sgt i32 %80, 0
  br i1 %81, label %.loopexit, label %82

82:                                               ; preds = %78
  %83 = load ptr, ptr %9, align 8
  %84 = getelementptr inbounds nuw i8, ptr %4, i64 8
  %85 = load ptr, ptr %84, align 8
  %86 = load i32, ptr %83, align 8
  %87 = add nsw i32 %86, -1
  store i32 %87, ptr %83, align 8
  %88 = icmp eq i32 %87, 0
  br i1 %88, label %89, label %_free_incoming_msg.exit35

89:                                               ; preds = %82
  %90 = getelementptr inbounds nuw i8, ptr %85, i64 528
  %91 = load ptr, ptr %90, align 8
  tail call void @list_enqueue(ptr noundef %91, ptr noundef nonnull %83) #11
  %92 = getelementptr inbounds nuw i8, ptr %85, i64 488
  %93 = load ptr, ptr %92, align 8
  %94 = tail call i32 @eio_signal_wakeup(ptr noundef %93) #11
  br label %_free_incoming_msg.exit35

_free_incoming_msg.exit35:                        ; preds = %82, %89
  store ptr null, ptr %9, align 8
  br label %.loopexit

.loopexit:                                        ; preds = %60, %78, %17, %20, %_free_incoming_msg.exit35, %_free_incoming_msg.exit34, %_free_incoming_msg.exit
  %.0 = phi i32 [ 0, %_free_incoming_msg.exit ], [ -1, %_free_incoming_msg.exit34 ], [ 0, %_free_incoming_msg.exit35 ], [ 0, %20 ], [ 0, %17 ], [ 0, %78 ], [ 0, %60 ]
  ret i32 %.0
}